target datalayout = "e-m:e-p270:32:32-p271:32:32-p272:64:64-i64:64-i128:128-f80:128-n8:16:32:64-S128"
target triple = "x86_64-pc-linux-gnu"

%struct.If_Obj_t_ = type { i32, i32, i32, i32, i32, i32, ptr, ptr, ptr, float, float, float, %union.anon, ptr, %struct.If_Cut_t_ }
%union.anon = type { ptr }
%struct.If_Cut_t_ = type <{ float, float, float, float, i32, i32, i32, i64, [0 x i32] }>

; Function Attrs: inlinehint nounwind uwtable
define internal i32 @Abc_LitNotCond(i32 noundef %0, i32 noundef %1) #3 {
  %3 = alloca i32, align 4
  %4 = alloca i32, align 4
  store i32 %0, ptr %3, align 4, !tbaa !42
  store i32 %1, ptr %4, align 4, !tbaa !42
  %5 = load i32, ptr %3, align 4, !tbaa !42
  %6 = load i32, ptr %4, align 4, !tbaa !42
  %7 = icmp sgt i32 %6, 0
  %8 = zext i1 %7 to i32
  %9 = xor i32 %5, %8
  ret i32 %9
}

; Function Attrs: nounwind uwtable
define i32 @Gia_ManFromIfAig_rec(ptr noundef %0, ptr noundef %1, ptr noundef %2) #0 {
  %4 = alloca i32, align 4
  %5 = alloca ptr, align 8
  %6 = alloca ptr, align 8
  %7 = alloca ptr, align 8
  %8 = alloca i32, align 4
  %9 = alloca i32, align 4
  %10 = alloca i32, align 4
  store ptr %0, ptr %5, align 8, !tbaa !40
  store ptr %1, ptr %6, align 8, !tbaa !129
  store ptr %2, ptr %7, align 8, !tbaa !131
  call void @llvm.lifetime.start.p0(i64 4, ptr %8) #14
  call void @llvm.lifetime.start.p0(i64 4, ptr %9) #14
  %11 = load ptr, ptr %7, align 8, !tbaa !131
  %12 = getelementptr inbounds nuw %struct.If_Obj_t_, ptr %11, i32 0, i32 12
  %13 = load i32, ptr %12, align 8, !tbaa !92
  %14 = icmp ne i32 %13, 0
  br i1 %14, label %15, label %19

15:                                               ; preds = %3
  %16 = load ptr, ptr %7, align 8, !tbaa !131
  %17 = getelementptr inbounds nuw %struct.If_Obj_t_, ptr %16, i32 0, i32 12
  %18 = load i32, ptr %17, align 8, !tbaa !92
  store i32 %18, ptr %4, align 4
  store i32 1, ptr %10, align 4
  br label %53

19:                                               ; preds = %3
  %20 = load ptr, ptr %5, align 8, !tbaa !40
  %21 = load ptr, ptr %6, align 8, !tbaa !129
  %22 = load ptr, ptr %7, align 8, !tbaa !131
  %23 = getelementptr inbounds nuw %struct.If_Obj_t_, ptr %22, i32 0, i32 6
  %24 = load ptr, ptr %23, align 8, !tbaa !137
  %25 = call i32 @Gia_ManFromIfAig_rec(ptr noundef %20, ptr noundef %21, ptr noundef %24)
  store i32 %25, ptr %8, align 4, !tbaa !42
  %26 = load ptr, ptr %5, align 8, !tbaa !40
  %27 = load ptr, ptr %6, align 8, !tbaa !129
  %28 = load ptr, ptr %7, align 8, !tbaa !131
  %29 = getelementptr inbounds nuw %struct.If_Obj_t_, ptr %28, i32 0, i32 7
  %30 = load ptr, ptr %29, align 8, !tbaa !138
  %31 = call i32 @Gia_ManFromIfAig_rec(ptr noundef %26, ptr noundef %27, ptr noundef %30)
  store i32 %31, ptr %9, align 4, !tbaa !42
  %32 = load i32, ptr %8, align 4, !tbaa !42
  %33 = load ptr, ptr %7, align 8, !tbaa !131
  %34 = load i32, ptr %33, align 8
  %35 = lshr i32 %34, 4
  %36 = and i32 %35, 1
  %37 = call i32 @Abc_LitNotCond(i32 noundef %32, i32 noundef %36)
  store i32 %37, ptr %8, align 4, !tbaa !42
  %38 = load i32, ptr %9, align 4, !tbaa !42
  %39 = load ptr, ptr %7, align 8, !tbaa !131
  %40 = load i32, ptr %39, align 8
  %41 = lshr i32 %40, 5
  %42 = and i32 %41, 1
  %43 = call i32 @Abc_LitNotCond(i32 noundef %38, i32 noundef %42)
  store i32 %43, ptr %9, align 4, !tbaa !42
  %44 = load ptr, ptr %5, align 8, !tbaa !40
  %45 = load i32, ptr %8, align 4, !tbaa !42
  %46 = load i32, ptr %9, align 4, !tbaa !42
  %47 = call i32 @Gia_ManHashAnd(ptr noundef %44, i32 noundef %45, i32 noundef %46)
  %48 = load ptr, ptr %7, align 8, !tbaa !131
  %49 = getelementptr inbounds nuw %struct.If_Obj_t_, ptr %48, i32 0, i32 12
  store i32 %47, ptr %49, align 8, !tbaa !92
  %50 = load ptr, ptr %7, align 8, !tbaa !131
  %51 = getelementptr inbounds nuw %struct.If_Obj_t_, ptr %50, i32 0, i32 12
  %52 = load i32, ptr %51, align 8, !tbaa !92
  store i32 %52, ptr %4, align 4
  store i32 1, ptr %10, align 4
  br label %53

53:                                               ; preds = %19, %15
  call void @llvm.lifetime.end.p0(i64 4, ptr %9) #14
  call void @llvm.lifetime.end.p0(i64 4, ptr %8) #14
  %54 = load i32, ptr %4, align 4
  ret i32 %54
}