; Function Attrs: nounwind uwtable
define i32 @Gia_ManFromIfAig_rec(ptr noundef %0, ptr noundef %1, ptr noundef captures(none) %2) local_unnamed_addr #4 {
  %4 = getelementptr inbounds nuw i8, ptr %2, i64 64
  %5 = load i32, ptr %4, align 8, !tbaa !75
  %.not = icmp eq i32 %5, 0
  br i1 %.not, label %6, label %common.ret19

common.ret19:                                     ; preds = %3, %6
  %common.ret19.op = phi i32 [ %18, %6 ], [ %5, %3 ]
  ret i32 %common.ret19.op

6:                                                ; preds = %3
  %7 = getelementptr inbounds nuw i8, ptr %2, i64 24
  %8 = load ptr, ptr %7, align 8, !tbaa !110
  %9 = tail call i32 @Gia_ManFromIfAig_rec(ptr noundef %0, ptr noundef %1, ptr noundef %8)
  %10 = getelementptr inbounds nuw i8, ptr %2, i64 32
  %11 = load ptr, ptr %10, align 8, !tbaa !115
  %12 = tail call i32 @Gia_ManFromIfAig_rec(ptr noundef %0, ptr noundef %1, ptr noundef %11)
  %13 = load i32, ptr %2, align 8
  %14 = lshr i32 %13, 4
  %.lobit = and i32 %14, 1
  %15 = xor i32 %.lobit, %9
  %16 = lshr i32 %13, 5
  %.lobit18 = and i32 %16, 1
  %17 = xor i32 %.lobit18, %12
  %18 = tail call i32 @Gia_ManHashAnd(ptr noundef %0, i32 noundef %15, i32 noundef %17) #27
  store i32 %18, ptr %4, align 8, !tbaa !75
  br label %common.ret19
}